target datalayout = "e-m:e-p270:32:32-p271:32:32-p272:64:64-i64:64-i128:128-f80:128-n8:16:32:64-S128"
target triple = "x86_64-pc-linux-gnu"

%struct.normal_encoding = type { %struct.encoding, [256 x i8], ptr, ptr, ptr, ptr, ptr, ptr, ptr, ptr, ptr }
%struct.encoding = type { [3 x ptr], [2 x ptr], ptr, ptr, ptr, ptr, ptr, ptr, ptr, ptr, ptr, ptr, i32, i8, i8 }

; Function Attrs: nounwind uwtable
define internal i32 @normal_entityValueTok(ptr noundef %0, ptr noundef %1, ptr noundef %2, ptr noundef %3) #0 {
  %5 = alloca i32, align 4
  %6 = alloca ptr, align 8
  %7 = alloca ptr, align 8
  %8 = alloca ptr, align 8
  %9 = alloca ptr, align 8
  %10 = alloca ptr, align 8
  %11 = alloca i32, align 4
  %12 = alloca i32, align 4
  store ptr %0, ptr %6, align 8, !tbaa !45
  store ptr %1, ptr %7, align 8, !tbaa !4
  store ptr %2, ptr %8, align 8, !tbaa !4
  store ptr %3, ptr %9, align 8, !tbaa !9
  call void @llvm.lifetime.start.p0(i64 8, ptr %10) #4
  %13 = load ptr, ptr %7, align 8, !tbaa !4
  %14 = load ptr, ptr %8, align 8, !tbaa !4
  %15 = icmp uge ptr %13, %14
  br i1 %15, label %16, label %17

16:                                               ; preds = %4
  store i32 -4, ptr %5, align 4
  store i32 1, ptr %11, align 4
  br label %139

17:                                               ; preds = %4
  %18 = load ptr, ptr %8, align 8, !tbaa !4
  %19 = load ptr, ptr %7, align 8, !tbaa !4
  %20 = ptrtoint ptr %18 to i64
  %21 = ptrtoint ptr %19 to i64
  %22 = sub i64 %20, %21
  %23 = icmp sge i64 %22, 1
  br i1 %23, label %25, label %24

24:                                               ; preds = %17
  store i32 -1, ptr %5, align 4
  store i32 1, ptr %11, align 4
  br label %139

25:                                               ; preds = %17
  br label %26

26:                                               ; preds = %25
  %27 = load ptr, ptr %7, align 8, !tbaa !4
  store ptr %27, ptr %10, align 8, !tbaa !4
  br label %28

28:                                               ; preds = %135, %26
  %29 = load ptr, ptr %8, align 8, !tbaa !4
  %30 = load ptr, ptr %7, align 8, !tbaa !4
  %31 = ptrtoint ptr %29 to i64
  %32 = ptrtoint ptr %30 to i64
  %33 = sub i64 %31, %32
  %34 = icmp sge i64 %33, 1
  br i1 %34, label %35, label %136

35:                                               ; preds = %28
  %36 = load ptr, ptr %6, align 8, !tbaa !45
  %37 = getelementptr inbounds nuw %struct.normal_encoding, ptr %36, i32 0, i32 1
  %38 = load ptr, ptr %7, align 8, !tbaa !4
  %39 = load i8, ptr %38, align 1, !tbaa !13
  %40 = zext i8 %39 to i64
  %41 = getelementptr inbounds nuw [256 x i8], ptr %37, i64 0, i64 %40
  %42 = load i8, ptr %41, align 1, !tbaa !13
  %43 = zext i8 %42 to i32
  switch i32 %43, label %132 [
    i32 5, label %44
    i32 6, label %47
    i32 7, label %50
    i32 3, label %53
    i32 30, label %67
    i32 10, label %88
    i32 9, label %99
  ]

44:                                               ; preds = %35
  %45 = load ptr, ptr %7, align 8, !tbaa !4
  %46 = getelementptr inbounds i8, ptr %45, i64 2
  store ptr %46, ptr %7, align 8, !tbaa !4
  br label %135

47:                                               ; preds = %35
  %48 = load ptr, ptr %7, align 8, !tbaa !4
  %49 = getelementptr inbounds i8, ptr %48, i64 3
  store ptr %49, ptr %7, align 8, !tbaa !4
  br label %135

50:                                               ; preds = %35
  %51 = load ptr, ptr %7, align 8, !tbaa !4
  %52 = getelementptr inbounds i8, ptr %51, i64 4
  store ptr %52, ptr %7, align 8, !tbaa !4
  br label %135

53:                                               ; preds = %35
  %54 = load ptr, ptr %7, align 8, !tbaa !4
  %55 = load ptr, ptr %10, align 8, !tbaa !4
  %56 = icmp eq ptr %54, %55
  br i1 %56, label %57, label %64

57:                                               ; preds = %53
  %58 = load ptr, ptr %6, align 8, !tbaa !45
  %59 = load ptr, ptr %7, align 8, !tbaa !4
  %60 = getelementptr inbounds i8, ptr %59, i64 1
  %61 = load ptr, ptr %8, align 8, !tbaa !4
  %62 = load ptr, ptr %9, align 8, !tbaa !9
  %63 = call i32 @normal_scanRef(ptr noundef %58, ptr noundef %60, ptr noundef %61, ptr noundef %62)
  store i32 %63, ptr %5, align 4
  store i32 1, ptr %11, align 4
  br label %139

64:                                               ; preds = %53
  %65 = load ptr, ptr %7, align 8, !tbaa !4
  %66 = load ptr, ptr %9, align 8, !tbaa !9
  store ptr %65, ptr %66, align 8, !tbaa !4
  store i32 6, ptr %5, align 4
  store i32 1, ptr %11, align 4
  br label %139

67:                                               ; preds = %35
  %68 = load ptr, ptr %7, align 8, !tbaa !4
  %69 = load ptr, ptr %10, align 8, !tbaa !4
  %70 = icmp eq ptr %68, %69
  br i1 %70, label %71, label %85

71:                                               ; preds = %67
  call void @llvm.lifetime.start.p0(i64 4, ptr %12) #4
  %72 = load ptr, ptr %6, align 8, !tbaa !45
  %73 = load ptr, ptr %7, align 8, !tbaa !4
  %74 = getelementptr inbounds i8, ptr %73, i64 1
  %75 = load ptr, ptr %8, align 8, !tbaa !4
  %76 = load ptr, ptr %9, align 8, !tbaa !9
  %77 = call i32 @normal_scanPercent(ptr noundef %72, ptr noundef %74, ptr noundef %75, ptr noundef %76)
  store i32 %77, ptr %12, align 4, !tbaa !16
  %78 = load i32, ptr %12, align 4, !tbaa !16
  %79 = icmp eq i32 %78, 22
  br i1 %79, label %80, label %81

80:                                               ; preds = %71
  br label %83

81:                                               ; preds = %71
  %82 = load i32, ptr %12, align 4, !tbaa !16
  br label %83

83:                                               ; preds = %81, %80
  %84 = phi i32 [ 0, %80 ], [ %82, %81 ]
  store i32 %84, ptr %5, align 4
  store i32 1, ptr %11, align 4
  call void @llvm.lifetime.end.p0(i64 4, ptr %12) #4
  br label %139

85:                                               ; preds = %67
  %86 = load ptr, ptr %7, align 8, !tbaa !4
  %87 = load ptr, ptr %9, align 8, !tbaa !9
  store ptr %86, ptr %87, align 8, !tbaa !4
  store i32 6, ptr %5, align 4
  store i32 1, ptr %11, align 4
  br label %139

88:                                               ; preds = %35
  %89 = load ptr, ptr %7, align 8, !tbaa !4
  %90 = load ptr, ptr %10, align 8, !tbaa !4
  %91 = icmp eq ptr %89, %90
  br i1 %91, label %92, label %96

92:                                               ; preds = %88
  %93 = load ptr, ptr %7, align 8, !tbaa !4
  %94 = getelementptr inbounds i8, ptr %93, i64 1
  %95 = load ptr, ptr %9, align 8, !tbaa !9
  store ptr %94, ptr %95, align 8, !tbaa !4
  store i32 7, ptr %5, align 4
  store i32 1, ptr %11, align 4
  br label %139

96:                                               ; preds = %88
  %97 = load ptr, ptr %7, align 8, !tbaa !4
  %98 = load ptr, ptr %9, align 8, !tbaa !9
  store ptr %97, ptr %98, align 8, !tbaa !4
  store i32 6, ptr %5, align 4
  store i32 1, ptr %11, align 4
  br label %139

99:                                               ; preds = %35
  %100 = load ptr, ptr %7, align 8, !tbaa !4
  %101 = load ptr, ptr %10, align 8, !tbaa !4
  %102 = icmp eq ptr %100, %101
  br i1 %102, label %103, label %129

103:                                              ; preds = %99
  %104 = load ptr, ptr %7, align 8, !tbaa !4
  %105 = getelementptr inbounds i8, ptr %104, i64 1
  store ptr %105, ptr %7, align 8, !tbaa !4
  %106 = load ptr, ptr %8, align 8, !tbaa !4
  %107 = load ptr, ptr %7, align 8, !tbaa !4
  %108 = ptrtoint ptr %106 to i64
  %109 = ptrtoint ptr %107 to i64
  %110 = sub i64 %108, %109
  %111 = icmp sge i64 %110, 1
  br i1 %111, label %113, label %112

112:                                              ; preds = %103
  store i32 -3, ptr %5, align 4
  store i32 1, ptr %11, align 4
  br label %139

113:                                              ; preds = %103
  %114 = load ptr, ptr %6, align 8, !tbaa !45
  %115 = getelementptr inbounds nuw %struct.normal_encoding, ptr %114, i32 0, i32 1
  %116 = load ptr, ptr %7, align 8, !tbaa !4
  %117 = load i8, ptr %116, align 1, !tbaa !13
  %118 = zext i8 %117 to i64
  %119 = getelementptr inbounds nuw [256 x i8], ptr %115, i64 0, i64 %118
  %120 = load i8, ptr %119, align 1, !tbaa !13
  %121 = zext i8 %120 to i32
  %122 = icmp eq i32 %121, 10
  br i1 %122, label %123, label %126

123:                                              ; preds = %113
  %124 = load ptr, ptr %7, align 8, !tbaa !4
  %125 = getelementptr inbounds i8, ptr %124, i64 1
  store ptr %125, ptr %7, align 8, !tbaa !4
  br label %126

126:                                              ; preds = %123, %113
  %127 = load ptr, ptr %7, align 8, !tbaa !4
  %128 = load ptr, ptr %9, align 8, !tbaa !9
  store ptr %127, ptr %128, align 8, !tbaa !4
  store i32 7, ptr %5, align 4
  store i32 1, ptr %11, align 4
  br label %139

129:                                              ; preds = %99
  %130 = load ptr, ptr %7, align 8, !tbaa !4
  %131 = load ptr, ptr %9, align 8, !tbaa !9
  store ptr %130, ptr %131, align 8, !tbaa !4
  store i32 6, ptr %5, align 4
  store i32 1, ptr %11, align 4
  br label %139

132:                                              ; preds = %35
  %133 = load ptr, ptr %7, align 8, !tbaa !4
  %134 = getelementptr inbounds i8, ptr %133, i64 1
  store ptr %134, ptr %7, align 8, !tbaa !4
  br label %135

135:                                              ; preds = %132, %50, %47, %44
  br label %28, !llvm.loop !76

136:                                              ; preds = %28
  %137 = load ptr, ptr %7, align 8, !tbaa !4
  %138 = load ptr, ptr %9, align 8, !tbaa !9
  store ptr %137, ptr %138, align 8, !tbaa !4
  store i32 6, ptr %5, align 4
  store i32 1, ptr %11, align 4
  br label %139

139:                                              ; preds = %136, %129, %126, %112, %96, %92, %85, %83, %64, %57, %24, %16
  call void @llvm.lifetime.end.p0(i64 8, ptr %10) #4
  %140 = load i32, ptr %5, align 4
  ret i32 %140
}