; Function Attrs: nounwind uwtable
define internal range(i32 -4, 29) i32 @normal_entityValueTok(ptr noundef %0, ptr noundef %1, ptr noundef %2, ptr noundef writeonly captures(none) %3) #6 {
  %.not = icmp ult ptr %1, %2
  br i1 %.not, label %5, label %58

5:                                                ; preds = %4
  %6 = ptrtoint ptr %2 to i64
  %7 = ptrtoint ptr %1 to i64
  %8 = sub i64 %6, %7
  %9 = icmp sgt i64 %8, 0
  br i1 %9, label %.lr.ph, label %58

.lr.ph:                                           ; preds = %5
  %10 = getelementptr inbounds nuw i8, ptr %0, i64 128
  br label %11

11:                                               ; preds = %.lr.ph, %53
  %.05161 = phi ptr [ %1, %.lr.ph ], [ %54, %53 ]
  %12 = load i8, ptr %.05161, align 1, !tbaa !9
  %13 = zext i8 %12 to i64
  %14 = getelementptr inbounds nuw [256 x i8], ptr %10, i64 0, i64 %13
  %15 = load i8, ptr %14, align 1, !tbaa !9
  switch i8 %15, label %52 [
    i8 5, label %53
    i8 6, label %16
    i8 7, label %17
    i8 3, label %18
    i8 30, label %24
    i8 10, label %32
    i8 9, label %37
  ]

16:                                               ; preds = %11
  br label %53

17:                                               ; preds = %11
  br label %53

18:                                               ; preds = %11
  %19 = icmp eq ptr %.05161, %1
  br i1 %19, label %20, label %23

20:                                               ; preds = %18
  %21 = getelementptr inbounds nuw i8, ptr %1, i64 1
  %22 = tail call fastcc i32 @normal_scanRef(ptr noundef nonnull %0, ptr noundef nonnull %21, ptr noundef nonnull %2, ptr noundef %3)
  br label %58

23:                                               ; preds = %18
  store ptr %.05161, ptr %3, align 8, !tbaa !4
  br label %58

24:                                               ; preds = %11
  %25 = icmp eq ptr %.05161, %1
  br i1 %25, label %26, label %31

26:                                               ; preds = %24
  %27 = getelementptr inbounds nuw i8, ptr %1, i64 1
  %28 = tail call fastcc i32 @normal_scanPercent(ptr noundef nonnull %0, ptr noundef nonnull %27, ptr noundef nonnull %2, ptr noundef %3)
  %29 = icmp eq i32 %28, 22
  %30 = select i1 %29, i32 0, i32 %28
  br label %58

31:                                               ; preds = %24
  store ptr %.05161, ptr %3, align 8, !tbaa !4
  br label %58

32:                                               ; preds = %11
  %33 = icmp eq ptr %.05161, %1
  br i1 %33, label %34, label %36

34:                                               ; preds = %32
  %35 = getelementptr inbounds nuw i8, ptr %1, i64 1
  store ptr %35, ptr %3, align 8, !tbaa !4
  br label %58

36:                                               ; preds = %32
  store ptr %.05161, ptr %3, align 8, !tbaa !4
  br label %58

37:                                               ; preds = %11
  %38 = icmp eq ptr %.05161, %1
  br i1 %38, label %39, label %51

39:                                               ; preds = %37
  %40 = getelementptr inbounds nuw i8, ptr %1, i64 1
  %41 = ptrtoint ptr %40 to i64
  %42 = sub i64 %6, %41
  %43 = icmp sgt i64 %42, 0
  br i1 %43, label %44, label %58

44:                                               ; preds = %39
  %45 = load i8, ptr %40, align 1, !tbaa !9
  %46 = zext i8 %45 to i64
  %47 = getelementptr inbounds nuw [256 x i8], ptr %10, i64 0, i64 %46
  %48 = load i8, ptr %47, align 1, !tbaa !9
  %49 = icmp eq i8 %48, 10
  %50 = getelementptr inbounds nuw i8, ptr %1, i64 2
  %spec.select = select i1 %49, ptr %50, ptr %40
  store ptr %spec.select, ptr %3, align 8, !tbaa !4
  br label %58

51:                                               ; preds = %37
  store ptr %.05161, ptr %3, align 8, !tbaa !4
  br label %58

52:                                               ; preds = %11
  br label %53

53:                                               ; preds = %11, %52, %17, %16
  %.sink = phi i64 [ 1, %52 ], [ 4, %17 ], [ 3, %16 ], [ 2, %11 ]
  %54 = getelementptr inbounds nuw i8, ptr %.05161, i64 %.sink
  %55 = ptrtoint ptr %54 to i64
  %56 = sub i64 %6, %55
  %57 = icmp sgt i64 %56, 0
  br i1 %57, label %11, label %._crit_edge, !llvm.loop !74

._crit_edge:                                      ; preds = %53
  store ptr %54, ptr %3, align 8, !tbaa !4
  br label %58

58:                                               ; preds = %39, %5, %4, %._crit_edge, %51, %44, %36, %34, %31, %26, %23, %20
  %.0 = phi i32 [ 7, %44 ], [ 6, %51 ], [ 7, %34 ], [ 6, %36 ], [ %30, %26 ], [ 6, %31 ], [ %22, %20 ], [ 6, %23 ], [ 6, %._crit_edge ], [ -4, %4 ], [ -1, %5 ], [ -3, %39 ]
  ret i32 %.0
}